target datalayout = "e-m:e-p270:32:32-p271:32:32-p272:64:64-i64:64-i128:128-f80:128-n8:16:32:64-S128"
target triple = "x86_64-pc-linux-gnu"

%struct._object = type { %union.anon, ptr }
%union.anon = type { i64 }
%struct.anon.4 = type { i32, i32 }

; Function Attrs: alwaysinline nounwind uwtable
define internal i32 @_Py_IsImmortal(ptr noundef %0) #4 {
  %2 = alloca ptr, align 8
  store ptr %0, ptr %2, align 8, !tbaa !96
  %3 = load ptr, ptr %2, align 8, !tbaa !96
  %4 = getelementptr inbounds nuw %struct._object, ptr %3, i32 0, i32 0
  %5 = getelementptr inbounds nuw %struct.anon.4, ptr %4, i32 0, i32 0
  %6 = load i32, ptr %5, align 8, !tbaa !126
  %7 = icmp slt i32 %6, 0
  %8 = zext i1 %7 to i32
  ret i32 %8
}

; Function Attrs: alwaysinline nounwind uwtable
define internal void @Py_DECREF(ptr noundef %0) #4 {
  %2 = alloca ptr, align 8
  store ptr %0, ptr %2, align 8, !tbaa !96
  %3 = load ptr, ptr %2, align 8, !tbaa !96
  %4 = call i32 @_Py_IsImmortal(ptr noundef %3)
  %5 = icmp ne i32 %4, 0
  br i1 %5, label %6, label %7

6:                                                ; preds = %1
  br label %16

7:                                                ; preds = %1
  %8 = load ptr, ptr %2, align 8, !tbaa !96
  %9 = getelementptr inbounds nuw %struct._object, ptr %8, i32 0, i32 0
  %10 = getelementptr inbounds nuw %struct.anon.4, ptr %9, i32 0, i32 0
  %11 = load i32, ptr %10, align 8, !tbaa !126
  %12 = add i32 %11, -1
  store i32 %12, ptr %10, align 8, !tbaa !126
  %13 = icmp eq i32 %12, 0
  br i1 %13, label %14, label %16

14:                                               ; preds = %7
  %15 = load ptr, ptr %2, align 8, !tbaa !96
  call void @_Py_Dealloc(ptr noundef %15)
  br label %16

16:                                               ; preds = %6, %14, %7
  ret void
}

; Function Attrs: nounwind uwtable
define internal ptr @descriptor_get_wrapped_attribute(ptr noundef %0, ptr noundef %1, ptr noundef %2) #0 {
  %4 = alloca ptr, align 8
  %5 = alloca ptr, align 8
  %6 = alloca ptr, align 8
  %7 = alloca ptr, align 8
  %8 = alloca ptr, align 8
  %9 = alloca i32, align 4
  %10 = alloca ptr, align 8
  store ptr %0, ptr %5, align 8, !tbaa !96
  store ptr %1, ptr %6, align 8, !tbaa !96
  store ptr %2, ptr %7, align 8, !tbaa !96
  call void @llvm.lifetime.start.p0(i64 8, ptr %8) #6
  %11 = load ptr, ptr %6, align 8, !tbaa !96
  %12 = call ptr @PyObject_GenericGetDict(ptr noundef %11, ptr noundef null)
  store ptr %12, ptr %8, align 8, !tbaa !96
  %13 = load ptr, ptr %8, align 8, !tbaa !96
  %14 = icmp eq ptr %13, null
  br i1 %14, label %15, label %16

15:                                               ; preds = %3
  store ptr null, ptr %4, align 8
  store i32 1, ptr %9, align 4
  br label %50

16:                                               ; preds = %3
  call void @llvm.lifetime.start.p0(i64 8, ptr %10) #6
  %17 = load ptr, ptr %8, align 8, !tbaa !96
  %18 = load ptr, ptr %7, align 8, !tbaa !96
  %19 = call i32 @PyDict_GetItemRef(ptr noundef %17, ptr noundef %18, ptr noundef %10)
  %20 = icmp slt i32 %19, 0
  br i1 %20, label %21, label %23

21:                                               ; preds = %16
  %22 = load ptr, ptr %8, align 8, !tbaa !96
  call void @Py_DECREF(ptr noundef %22)
  store ptr null, ptr %4, align 8
  store i32 1, ptr %9, align 4
  br label %49

23:                                               ; preds = %16
  %24 = load ptr, ptr %10, align 8, !tbaa !96
  %25 = icmp ne ptr %24, null
  br i1 %25, label %26, label %29

26:                                               ; preds = %23
  %27 = load ptr, ptr %8, align 8, !tbaa !96
  call void @Py_DECREF(ptr noundef %27)
  %28 = load ptr, ptr %10, align 8, !tbaa !96
  store ptr %28, ptr %4, align 8
  store i32 1, ptr %9, align 4
  br label %49

29:                                               ; preds = %23
  %30 = load ptr, ptr %5, align 8, !tbaa !96
  %31 = load ptr, ptr %7, align 8, !tbaa !96
  %32 = call ptr @PyObject_GetAttr(ptr noundef %30, ptr noundef %31)
  store ptr %32, ptr %10, align 8, !tbaa !96
  %33 = load ptr, ptr %10, align 8, !tbaa !96
  %34 = icmp eq ptr %33, null
  br i1 %34, label %35, label %37

35:                                               ; preds = %29
  %36 = load ptr, ptr %8, align 8, !tbaa !96
  call void @Py_DECREF(ptr noundef %36)
  store ptr null, ptr %4, align 8
  store i32 1, ptr %9, align 4
  br label %49

37:                                               ; preds = %29
  %38 = load ptr, ptr %8, align 8, !tbaa !96
  %39 = load ptr, ptr %7, align 8, !tbaa !96
  %40 = load ptr, ptr %10, align 8, !tbaa !96
  %41 = call i32 @PyDict_SetItem(ptr noundef %38, ptr noundef %39, ptr noundef %40)
  %42 = icmp slt i32 %41, 0
  br i1 %42, label %43, label %46

43:                                               ; preds = %37
  %44 = load ptr, ptr %8, align 8, !tbaa !96
  call void @Py_DECREF(ptr noundef %44)
  %45 = load ptr, ptr %10, align 8, !tbaa !96
  call void @Py_DECREF(ptr noundef %45)
  store ptr null, ptr %4, align 8
  store i32 1, ptr %9, align 4
  br label %49

46:                                               ; preds = %37
  %47 = load ptr, ptr %8, align 8, !tbaa !96
  call void @Py_DECREF(ptr noundef %47)
  %48 = load ptr, ptr %10, align 8, !tbaa !96
  store ptr %48, ptr %4, align 8
  store i32 1, ptr %9, align 4
  br label %49

49:                                               ; preds = %46, %43, %35, %26, %21
  call void @llvm.lifetime.end.p0(i64 8, ptr %10) #6
  br label %50

50:                                               ; preds = %49, %15
  call void @llvm.lifetime.end.p0(i64 8, ptr %8) #6
  %51 = load ptr, ptr %4, align 8
  ret ptr %51
}