; Function Attrs: nounwind uwtable
define internal fastcc ptr @descriptor_get_wrapped_attribute(ptr noundef %0, ptr noundef %1, ptr noundef %2) unnamed_addr #0 {
  %4 = alloca ptr, align 8
  %5 = tail call ptr @PyObject_GenericGetDict(ptr noundef %1, ptr noundef null) #8
  %6 = icmp eq ptr %5, null
  br i1 %6, label %54, label %7

7:                                                ; preds = %3
  call void @llvm.lifetime.start.p0(i64 8, ptr nonnull %4) #8
  %8 = call i32 @PyDict_GetItemRef(ptr noundef nonnull %5, ptr noundef %2, ptr noundef nonnull %4) #8
  %9 = icmp slt i32 %8, 0
  br i1 %9, label %10, label %16

10:                                               ; preds = %7
  %11 = load i32, ptr %5, align 8, !tbaa !99
  %.not.i24 = icmp sgt i32 %11, -1
  br i1 %.not.i24, label %12, label %Py_DECREF.exit25

12:                                               ; preds = %10
  %13 = add nsw i32 %11, -1
  store i32 %13, ptr %5, align 8, !tbaa !99
  %14 = icmp eq i32 %13, 0
  br i1 %14, label %15, label %Py_DECREF.exit25

15:                                               ; preds = %12
  call void @_Py_Dealloc(ptr noundef nonnull %5) #8
  br label %Py_DECREF.exit25

16:                                               ; preds = %7
  %17 = load ptr, ptr %4, align 8, !tbaa !96
  %.not = icmp eq ptr %17, null
  br i1 %.not, label %24, label %18

18:                                               ; preds = %16
  %19 = load i32, ptr %5, align 8, !tbaa !99
  %.not.i22 = icmp sgt i32 %19, -1
  br i1 %.not.i22, label %20, label %Py_DECREF.exit25

20:                                               ; preds = %18
  %21 = add nsw i32 %19, -1
  store i32 %21, ptr %5, align 8, !tbaa !99
  %22 = icmp eq i32 %21, 0
  br i1 %22, label %23, label %Py_DECREF.exit25

23:                                               ; preds = %20
  call void @_Py_Dealloc(ptr noundef nonnull %5) #8
  %.pre = load ptr, ptr %4, align 8, !tbaa !96
  br label %Py_DECREF.exit25

24:                                               ; preds = %16
  %25 = call ptr @PyObject_GetAttr(ptr noundef %0, ptr noundef %2) #8
  store ptr %25, ptr %4, align 8, !tbaa !96
  %26 = icmp eq ptr %25, null
  br i1 %26, label %27, label %33

27:                                               ; preds = %24
  %28 = load i32, ptr %5, align 8, !tbaa !99
  %.not.i20 = icmp sgt i32 %28, -1
  br i1 %.not.i20, label %29, label %Py_DECREF.exit25

29:                                               ; preds = %27
  %30 = add nsw i32 %28, -1
  store i32 %30, ptr %5, align 8, !tbaa !99
  %31 = icmp eq i32 %30, 0
  br i1 %31, label %32, label %Py_DECREF.exit25

32:                                               ; preds = %29
  call void @_Py_Dealloc(ptr noundef nonnull %5) #8
  br label %Py_DECREF.exit25

33:                                               ; preds = %24
  %34 = call i32 @PyDict_SetItem(ptr noundef nonnull %5, ptr noundef %2, ptr noundef nonnull %25) #8
  %35 = icmp slt i32 %34, 0
  %36 = load i32, ptr %5, align 8, !tbaa !99
  %.not.i18 = icmp sgt i32 %36, -1
  br i1 %35, label %37, label %48

37:                                               ; preds = %33
  br i1 %.not.i18, label %38, label %Py_DECREF.exit19

38:                                               ; preds = %37
  %39 = add nsw i32 %36, -1
  store i32 %39, ptr %5, align 8, !tbaa !99
  %40 = icmp eq i32 %39, 0
  br i1 %40, label %41, label %Py_DECREF.exit19

41:                                               ; preds = %38
  call void @_Py_Dealloc(ptr noundef nonnull %5) #8
  br label %Py_DECREF.exit19

Py_DECREF.exit19:                                 ; preds = %37, %38, %41
  %42 = load ptr, ptr %4, align 8, !tbaa !96
  %43 = load i32, ptr %42, align 8, !tbaa !99
  %.not.i16 = icmp sgt i32 %43, -1
  br i1 %.not.i16, label %44, label %Py_DECREF.exit25

44:                                               ; preds = %Py_DECREF.exit19
  %45 = add nsw i32 %43, -1
  store i32 %45, ptr %42, align 8, !tbaa !99
  %46 = icmp eq i32 %45, 0
  br i1 %46, label %47, label %Py_DECREF.exit25

47:                                               ; preds = %44
  call void @_Py_Dealloc(ptr noundef nonnull %42) #8
  br label %Py_DECREF.exit25

48:                                               ; preds = %33
  br i1 %.not.i18, label %49, label %Py_DECREF.exit

49:                                               ; preds = %48
  %50 = add nsw i32 %36, -1
  store i32 %50, ptr %5, align 8, !tbaa !99
  %51 = icmp eq i32 %50, 0
  br i1 %51, label %52, label %Py_DECREF.exit

52:                                               ; preds = %49
  call void @_Py_Dealloc(ptr noundef nonnull %5) #8
  br label %Py_DECREF.exit

Py_DECREF.exit:                                   ; preds = %48, %49, %52
  %53 = load ptr, ptr %4, align 8, !tbaa !96
  br label %Py_DECREF.exit25

Py_DECREF.exit25:                                 ; preds = %23, %20, %18, %47, %44, %Py_DECREF.exit19, %32, %29, %27, %15, %12, %10, %Py_DECREF.exit
  %.1 = phi ptr [ %53, %Py_DECREF.exit ], [ null, %10 ], [ null, %12 ], [ null, %15 ], [ null, %27 ], [ null, %29 ], [ null, %32 ], [ null, %Py_DECREF.exit19 ], [ null, %44 ], [ null, %47 ], [ %17, %18 ], [ %17, %20 ], [ %.pre, %23 ]
  call void @llvm.lifetime.end.p0(i64 8, ptr nonnull %4) #8
  br label %54

54:                                               ; preds = %3, %Py_DECREF.exit25
  %.0 = phi ptr [ %.1, %Py_DECREF.exit25 ], [ null, %3 ]
  ret ptr %.0
}